target datalayout = "e-m:e-p270:32:32-p271:32:32-p272:64:64-i64:64-i128:128-f80:128-n8:16:32:64-S128"
target triple = "x86_64-unknown-linux-gnu"

%struct.timeval = type { i64, i64 }
%struct.ERSTDeviceState = type { %struct.PCIDevice, ptr, ptr, i32, i32, %struct.MemoryRegion, %struct.MemoryRegion, i8, i8, i8, i32, i64, i64, i64, ptr, i32, i32, i32 }
%struct.PCIDevice = type { %struct.DeviceState, i8, i8, ptr, ptr, ptr, ptr, ptr, i32, %struct.PCIReqIDCache, [64 x i8], [7 x %struct.PCIIORegion], %struct.AddressSpace, %struct.MemoryRegion, %struct.MemoryRegion, ptr, ptr, [3 x ptr], i8, i8, i32, i8, i32, ptr, ptr, ptr, ptr, ptr, ptr, %struct.MemoryRegion, %struct.MemoryRegion, %struct.MemoryRegion, ptr, i8, i32, i8, %struct.PCIExpressDevice, ptr, ptr, i32, i8, %struct.MemoryRegion, i32, ptr, ptr, ptr, ptr, ptr, i32 }
%struct.DeviceState = type { %struct.Object, ptr, ptr, i8, i8, i64, ptr, i32, i8, ptr, %struct.NamedGPIOListHead, %struct.NamedClockListHead, %struct.BusStateHead, i32, i32, i32, %struct.ResettableState, ptr, %struct.MemReentrancyGuard }
%struct.Object = type { ptr, ptr, ptr, i32, ptr }
%struct.NamedGPIOListHead = type { ptr }
%struct.NamedClockListHead = type { ptr }
%struct.BusStateHead = type { ptr }
%struct.ResettableState = type { i32, i8, i8 }
%struct.MemReentrancyGuard = type { i8 }
%struct.PCIReqIDCache = type { ptr, i32 }
%struct.PCIIORegion = type { i64, i64, i8, ptr, ptr }
%struct.AddressSpace = type { %struct.rcu_head, ptr, ptr, ptr, i32, i32, ptr, %union.anon.0, %union.anon.1 }
%struct.rcu_head = type { ptr, ptr }
%union.anon.0 = type { %struct.QTailQLink }
%struct.QTailQLink = type { ptr, ptr }
%union.anon.1 = type { %struct.QTailQLink }
%struct.PCIExpressDevice = type { i8, i8, i8, i16, %struct.PCIEAERLog, i16, i16, i16, %struct.PCIESriovPF, %struct.PCIESriovVF }
%struct.PCIEAERLog = type { i16, i16, ptr }
%struct.PCIESriovPF = type { i16, [7 x i8], ptr, ptr }
%struct.PCIESriovVF = type { ptr, i16 }
%struct.MemoryRegion = type { %struct.Object, i8, i8, i8, i8, i8, i8, i8, i8, i8, i8, ptr, ptr, ptr, ptr, ptr, ptr, i32, i128, i64, ptr, i64, i8, i8, i8, i8, i8, ptr, i64, i32, %union.anon.2, %union.anon.3, %union.anon.4, ptr, i32, ptr, ptr, i8 }
%union.anon.2 = type { %struct.QTailQLink }
%union.anon.3 = type { %struct.QTailQLink }
%union.anon.4 = type { %struct.QTailQLink }

@trace_events_enabled_count = external global i32, align 4
@message_with_timestamp = external global i8, align 1
@qemu_loglevel = external global i32, align 4
@_TRACE_ACPI_ERST_REG_READ_DSTATE = external global i16, align 2
@.str.24 = private unnamed_addr constant [72 x i8] c"%d@%zu.%06zu:acpi_erst_reg_read  addr: 0x%04lx ==> 0x%016lx (size: %u)\0A\00", align 1
@.str.25 = private unnamed_addr constant [59 x i8] c"acpi_erst_reg_read  addr: 0x%04lx ==> 0x%016lx (size: %u)\0A\00", align 1

; Function Attrs: nounwind sspstrong uwtable
define internal zeroext i1 @qemu_loglevel_mask(i32 noundef %mask) #0 {
entry:
  %mask.addr = alloca i32, align 4
  store i32 %mask, ptr %mask.addr, align 4
  %0 = load i32, ptr @qemu_loglevel, align 4
  %1 = load i32, ptr %mask.addr, align 4
  %and = and i32 %0, %1
  %cmp = icmp ne i32 %and, 0
  ret i1 %cmp
}

; Function Attrs: nounwind sspstrong uwtable
define internal void @_nocheck__trace_acpi_erst_reg_read(i64 noundef %addr, i64 noundef %val, i32 noundef %size) #0 {
entry:
  %addr.addr = alloca i64, align 8
  %val.addr = alloca i64, align 8
  %size.addr = alloca i32, align 4
  %_now = alloca %struct.timeval, align 8
  store i64 %addr, ptr %addr.addr, align 8
  store i64 %val, ptr %val.addr, align 8
  store i32 %size, ptr %size.addr, align 4
  %0 = load i32, ptr @trace_events_enabled_count, align 4
  %tobool = icmp ne i32 %0, 0
  %lnot = xor i1 %tobool, true
  %lnot1 = xor i1 %lnot, true
  %lnot.ext = zext i1 %lnot1 to i32
  %conv = sext i32 %lnot.ext to i64
  %tobool2 = icmp ne i64 %conv, 0
  br i1 %tobool2, label %land.lhs.true, label %if.end11

land.lhs.true:                                    ; preds = %entry
  %1 = load i16, ptr @_TRACE_ACPI_ERST_REG_READ_DSTATE, align 2
  %conv3 = zext i16 %1 to i32
  %tobool4 = icmp ne i32 %conv3, 0
  br i1 %tobool4, label %land.lhs.true5, label %if.end11

land.lhs.true5:                                   ; preds = %land.lhs.true
  %call = call zeroext i1 @qemu_loglevel_mask(i32 noundef 32768)
  br i1 %call, label %if.then, label %if.end11

if.then:                                          ; preds = %land.lhs.true5
  %2 = load i8, ptr @message_with_timestamp, align 1
  %tobool7 = trunc i8 %2 to i1
  br i1 %tobool7, label %if.then8, label %if.else

if.then8:                                         ; preds = %if.then
  %call9 = call i32 @gettimeofday(ptr noundef %_now, ptr noundef null) #8
  %call10 = call i32 @qemu_get_thread_id()
  %tv_sec = getelementptr inbounds %struct.timeval, ptr %_now, i32 0, i32 0
  %3 = load i64, ptr %tv_sec, align 8
  %tv_usec = getelementptr inbounds %struct.timeval, ptr %_now, i32 0, i32 1
  %4 = load i64, ptr %tv_usec, align 8
  %5 = load i64, ptr %addr.addr, align 8
  %6 = load i64, ptr %val.addr, align 8
  %7 = load i32, ptr %size.addr, align 4
  call void (ptr, ...) @qemu_log(ptr noundef @.str.24, i32 noundef %call10, i64 noundef %3, i64 noundef %4, i64 noundef %5, i64 noundef %6, i32 noundef %7)
  br label %if.end

if.else:                                          ; preds = %if.then
  %8 = load i64, ptr %addr.addr, align 8
  %9 = load i64, ptr %val.addr, align 8
  %10 = load i32, ptr %size.addr, align 4
  call void (ptr, ...) @qemu_log(ptr noundef @.str.25, i64 noundef %8, i64 noundef %9, i32 noundef %10)
  br label %if.end

if.end:                                           ; preds = %if.else, %if.then8
  br label %if.end11

if.end11:                                         ; preds = %if.end, %land.lhs.true5, %land.lhs.true, %entry
  ret void
}

; Function Attrs: nounwind sspstrong uwtable
define internal void @trace_acpi_erst_reg_read(i64 noundef %addr, i64 noundef %val, i32 noundef %size) #0 {
entry:
  %addr.addr = alloca i64, align 8
  %val.addr = alloca i64, align 8
  %size.addr = alloca i32, align 4
  store i64 %addr, ptr %addr.addr, align 8
  store i64 %val, ptr %val.addr, align 8
  store i32 %size, ptr %size.addr, align 4
  %0 = load i64, ptr %addr.addr, align 8
  %1 = load i64, ptr %val.addr, align 8
  %2 = load i32, ptr %size.addr, align 4
  call void @_nocheck__trace_acpi_erst_reg_read(i64 noundef %0, i64 noundef %1, i32 noundef %2)
  ret void
}

; Function Attrs: nounwind sspstrong uwtable
define internal i64 @erst_rd_reg64(i64 noundef %addr, i64 noundef %reg, i32 noundef %size) #0 {
entry:
  %addr.addr = alloca i64, align 8
  %reg.addr = alloca i64, align 8
  %size.addr = alloca i32, align 4
  %rdval = alloca i64, align 8
  %mask = alloca i64, align 8
  %shift = alloca i32, align 4
  store i64 %addr, ptr %addr.addr, align 8
  store i64 %reg, ptr %reg.addr, align 8
  store i32 %size, ptr %size.addr, align 4
  %0 = load i32, ptr %size.addr, align 4
  %conv = zext i32 %0 to i64
  %cmp = icmp eq i64 %conv, 8
  br i1 %cmp, label %if.then, label %if.else

if.then:                                          ; preds = %entry
  store i64 -1, ptr %mask, align 8
  store i32 0, ptr %shift, align 4
  br label %if.end

if.else:                                          ; preds = %entry
  store i64 4294967295, ptr %mask, align 8
  %1 = load i64, ptr %addr.addr, align 8
  %and = and i64 %1, 4
  %cmp2 = icmp eq i64 %and, 4
  %cond = select i1 %cmp2, i32 32, i32 0
  store i32 %cond, ptr %shift, align 4
  br label %if.end

if.end:                                           ; preds = %if.else, %if.then
  %2 = load i64, ptr %reg.addr, align 8
  store i64 %2, ptr %rdval, align 8
  %3 = load i32, ptr %shift, align 4
  %4 = load i64, ptr %rdval, align 8
  %sh_prom = zext i32 %3 to i64
  %shr = lshr i64 %4, %sh_prom
  store i64 %shr, ptr %rdval, align 8
  %5 = load i64, ptr %mask, align 8
  %6 = load i64, ptr %rdval, align 8
  %and4 = and i64 %6, %5
  store i64 %and4, ptr %rdval, align 8
  %7 = load i64, ptr %rdval, align 8
  ret i64 %7
}

; Function Attrs: nounwind sspstrong uwtable
define internal i64 @erst_reg_read(ptr noundef %opaque, i64 noundef %addr, i32 noundef %size) #0 {
entry:
  %opaque.addr = alloca ptr, align 8
  %addr.addr = alloca i64, align 8
  %size.addr = alloca i32, align 4
  %s = alloca ptr, align 8
  %val = alloca i64, align 8
  store ptr %opaque, ptr %opaque.addr, align 8
  store i64 %addr, ptr %addr.addr, align 8
  store i32 %size, ptr %size.addr, align 4
  %0 = load ptr, ptr %opaque.addr, align 8
  store ptr %0, ptr %s, align 8
  store i64 0, ptr %val, align 8
  %1 = load i64, ptr %addr.addr, align 8
  switch i64 %1, label %sw.default [
    i64 0, label %sw.bb
    i64 4, label %sw.bb
    i64 8, label %sw.bb1
    i64 12, label %sw.bb1
  ]

sw.bb:                                            ; preds = %entry, %entry
  %2 = load i64, ptr %addr.addr, align 8
  %3 = load ptr, ptr %s, align 8
  %reg_action = getelementptr inbounds %struct.ERSTDeviceState, ptr %3, i32 0, i32 11
  %4 = load i64, ptr %reg_action, align 8
  %5 = load i32, ptr %size.addr, align 4
  %call = call i64 @erst_rd_reg64(i64 noundef %2, i64 noundef %4, i32 noundef %5)
  store i64 %call, ptr %val, align 8
  br label %sw.epilog

sw.bb1:                                           ; preds = %entry, %entry
  %6 = load i64, ptr %addr.addr, align 8
  %7 = load ptr, ptr %s, align 8
  %reg_value = getelementptr inbounds %struct.ERSTDeviceState, ptr %7, i32 0, i32 12
  %8 = load i64, ptr %reg_value, align 16
  %9 = load i32, ptr %size.addr, align 4
  %call2 = call i64 @erst_rd_reg64(i64 noundef %6, i64 noundef %8, i32 noundef %9)
  store i64 %call2, ptr %val, align 8
  br label %sw.epilog

sw.default:                                       ; preds = %entry
  br label %sw.epilog

sw.epilog:                                        ; preds = %sw.default, %sw.bb1, %sw.bb
  %10 = load i64, ptr %addr.addr, align 8
  %11 = load i64, ptr %val, align 8
  %12 = load i32, ptr %size.addr, align 4
  call void @trace_acpi_erst_reg_read(i64 noundef %10, i64 noundef %11, i32 noundef %12)
  %13 = load i64, ptr %val, align 8
  ret i64 %13
}